; Function Attrs: mustprogress uwtable
define noundef ptr @_Z24gmx_fio_all_output_fsyncv() local_unnamed_addr #0 personality ptr @__gxx_personality_v0 {
  %1 = tail call noundef i32 @pthread_mutex_lock(ptr noundef nonnull align 8 dereferenceable(40) @_ZL15open_file_mutex) #21
  %.not.i.i = icmp eq i32 %1, 0
  br i1 %.not.i.i, label %_ZNSt10lock_guardISt5mutexEC2ERS0_.exit, label %2

2:                                                ; preds = %0
  tail call void @_ZSt20__throw_system_errori(i32 noundef %1) #22
  unreachable

_ZNSt10lock_guardISt5mutexEC2ERS0_.exit:          ; preds = %0
  invoke fastcc void @_ZL18gmx_fio_make_dummyv()
          to label %.noexc unwind label %.loopexit.split-lp

.noexc:                                           ; preds = %_ZNSt10lock_guardISt5mutexEC2ERS0_.exit
  %3 = load ptr, ptr @_ZL10open_files, align 8, !tbaa !41
  %4 = getelementptr inbounds nuw i8, ptr %3, i64 88
  invoke void @_Z14tMPI_Lock_lockP9tMPI_Lock(ptr noundef nonnull %4)
          to label %.noexc14 unwind label %.loopexit.split-lp

.noexc14:                                         ; preds = %.noexc
  %5 = load ptr, ptr @_ZL10open_files, align 8, !tbaa !41
  %6 = getelementptr inbounds nuw i8, ptr %5, i64 72
  %7 = load ptr, ptr %6, align 8, !tbaa !43
  %8 = icmp eq ptr %7, %5
  br i1 %8, label %11, label %9

9:                                                ; preds = %.noexc14
  %10 = getelementptr inbounds nuw i8, ptr %7, i64 88
  invoke void @_Z14tMPI_Lock_lockP9tMPI_Lock(ptr noundef nonnull %10)
          to label %.noexc15 unwind label %.loopexit.split-lp

.noexc15:                                         ; preds = %9
  %.pre.i = load ptr, ptr @_ZL10open_files, align 8, !tbaa !41
  br label %11

11:                                               ; preds = %.noexc15, %.noexc14
  %12 = phi ptr [ %.pre.i, %.noexc15 ], [ %5, %.noexc14 ]
  %.0.i = phi ptr [ %7, %.noexc15 ], [ null, %.noexc14 ]
  %13 = getelementptr inbounds nuw i8, ptr %12, i64 88
  invoke void @_Z16tMPI_Lock_unlockP9tMPI_Lock(ptr noundef nonnull %13)
          to label %_ZL17gmx_fio_get_firstv.exit unwind label %.loopexit.split-lp

_ZL17gmx_fio_get_firstv.exit:                     ; preds = %11, %.noexc20
  %.012 = phi ptr [ %.0.i19, %.noexc20 ], [ %.0.i, %11 ]
  %.0 = phi ptr [ %.1, %.noexc20 ], [ null, %11 ]
  %.not = icmp eq ptr %.012, null
  br i1 %.not, label %33, label %14

14:                                               ; preds = %_ZL17gmx_fio_get_firstv.exit
  %15 = getelementptr inbounds nuw i8, ptr %.012, i64 8
  %16 = load i8, ptr %15, align 8, !tbaa !38, !range !51, !noundef !52
  %17 = trunc nuw i8 %16 to i1
  br i1 %17, label %25, label %18

18:                                               ; preds = %14
  %.012.val = load ptr, ptr %.012, align 8, !tbaa !14
  %.not.i = icmp eq ptr %.012.val, null
  br i1 %.not.i, label %_ZL17gmx_fio_int_fsyncP8t_fileio.exit, label %19

19:                                               ; preds = %18
  %20 = invoke noundef i32 @_Z9gmx_fsyncP8_IO_FILE(ptr noundef nonnull %.012.val)
          to label %_ZL17gmx_fio_int_fsyncP8t_fileio.exit unwind label %23

_ZL17gmx_fio_int_fsyncP8t_fileio.exit:            ; preds = %18, %19
  %.0.i17 = phi i32 [ 0, %18 ], [ %20, %19 ]
  %21 = icmp eq i32 %.0.i17, 0
  %22 = icmp ne ptr %.0, null
  %or.cond = select i1 %21, i1 true, i1 %22
  %spec.select = select i1 %or.cond, ptr %.0, ptr %.012
  br label %25

.loopexit:                                        ; preds = %30, %.noexc20
  %lpad.loopexit = landingpad { ptr, i32 }
          cleanup
  br label %43

.loopexit.split-lp:                               ; preds = %33, %39, %_ZNSt10lock_guardISt5mutexEC2ERS0_.exit, %.noexc, %9, %11
  %lpad.loopexit.split-lp = landingpad { ptr, i32 }
          cleanup
  br label %43

23:                                               ; preds = %19
  %24 = landingpad { ptr, i32 }
          cleanup
  br label %43

25:                                               ; preds = %_ZL17gmx_fio_int_fsyncP8t_fileio.exit, %14
  %.1 = phi ptr [ %.0, %14 ], [ %spec.select, %_ZL17gmx_fio_int_fsyncP8t_fileio.exit ]
  %26 = getelementptr inbounds nuw i8, ptr %.012, i64 72
  %27 = load ptr, ptr %26, align 8, !tbaa !43
  %28 = load ptr, ptr @_ZL10open_files, align 8, !tbaa !41
  %29 = icmp eq ptr %27, %28
  br i1 %29, label %.noexc20, label %30

30:                                               ; preds = %25
  %31 = getelementptr inbounds nuw i8, ptr %27, i64 88
  invoke void @_Z14tMPI_Lock_lockP9tMPI_Lock(ptr noundef nonnull %31)
          to label %.noexc20 unwind label %.loopexit

.noexc20:                                         ; preds = %30, %25
  %.0.i19 = phi ptr [ null, %25 ], [ %27, %30 ]
  %32 = getelementptr inbounds nuw i8, ptr %.012, i64 88
  invoke void @_Z16tMPI_Lock_unlockP9tMPI_Lock(ptr noundef nonnull %32)
          to label %_ZL17gmx_fio_get_firstv.exit unwind label %.loopexit

33:                                               ; preds = %_ZL17gmx_fio_get_firstv.exit
  %34 = load ptr, ptr @stdout, align 8, !tbaa !53
  %35 = tail call i32 @fflush(ptr noundef %34)
  %36 = load ptr, ptr @stderr, align 8, !tbaa !53
  %37 = tail call i32 @fflush(ptr noundef %36)
  %38 = invoke i32 @fsync(i32 noundef 1)
          to label %39 unwind label %.loopexit.split-lp

39:                                               ; preds = %33
  %40 = invoke i32 @fsync(i32 noundef 2)
          to label %41 unwind label %.loopexit.split-lp

41:                                               ; preds = %39
  %42 = tail call noundef i32 @pthread_mutex_unlock(ptr noundef nonnull align 8 dereferenceable(40) @_ZL15open_file_mutex) #21
  ret ptr %.0

43:                                               ; preds = %.loopexit, %.loopexit.split-lp, %23
  %.pn = phi { ptr, i32 } [ %24, %23 ], [ %lpad.loopexit, %.loopexit ], [ %lpad.loopexit.split-lp, %.loopexit.split-lp ]
  %44 = tail call noundef i32 @pthread_mutex_unlock(ptr noundef nonnull align 8 dereferenceable(40) @_ZL15open_file_mutex) #21
  resume { ptr, i32 } %.pn
}